target datalayout = "e-m:e-p270:32:32-p271:32:32-p272:64:64-i64:64-i128:128-f80:128-n8:16:32:64-S128"
target triple = "x86_64-pc-linux-gnu"

%struct.strvec = type { ptr, i64, i64 }
%struct.rev_info = type { ptr, %struct.object_array, ptr, %struct.object_array, %struct.rev_cmdline_info, %struct.list_objects_filter_options, %struct.ref_exclusions, ptr, ptr, ptr, %struct.pathspec, i32, i32, i32, i32, i64, i32, i32, %struct.date_mode, i32, i32, i32, i32, ptr, i32, i32, ptr, ptr, i32, ptr, ptr, %struct.ident_split, ptr, i32, ptr, ptr, ptr, i32, i32, i32, ptr, %struct.grep_opt, ptr, i32, i32, i64, i64, i64, i32, i32, ptr, ptr, ptr, %struct.diff_options, %struct.diff_options, ptr, %struct.decoration, %struct.decoration, %struct.decoration, %struct.display_notes_opt, ptr, ptr, ptr, ptr, ptr, i32, ptr, i32, i32, i32, %struct.decoration, ptr, ptr, ptr, ptr, ptr, ptr, ptr, i32, ptr, i32, ptr, %struct.oidset }
%struct.object_array = type { i32, i32, ptr }
%struct.rev_cmdline_info = type { i32, i32, ptr }
%struct.list_objects_filter_options = type { %struct.strbuf, i32, i8, ptr, i64, i64, i32, i64, i64, ptr }
%struct.strbuf = type { i64, i64, ptr }
%struct.ref_exclusions = type { %struct.string_list, %struct.strvec, i8 }
%struct.string_list = type { ptr, i64, i64, i8, ptr }
%struct.pathspec = type { i32, i8, i32, i32, ptr }
%struct.date_mode = type { i32, i32, ptr }
%struct.ident_split = type { ptr, ptr, ptr, ptr, ptr, ptr, ptr, ptr }
%struct.grep_opt = type { ptr, ptr, ptr, ptr, ptr, ptr, i32, i32, i32, i32, i32, i32, i32, i32, i32, i32, i32, i32, i32, i32, i32, i32, i32, i32, i32, i32, i32, i32, i32, i32, i32, i32, [9 x [75 x i8]], i32, i32, i32, i32, i32, i32, i32, ptr, ptr, ptr }
%struct.diff_options = type { ptr, ptr, i32, i32, ptr, i32, ptr, i64, i64, ptr, ptr, ptr, ptr, %struct.diff_flags, i32, i32, i32, i32, i32, i32, i32, i32, i32, i32, i32, i32, i32, i32, i32, i32, i32, i32, i32, i32, i32, i32, ptr, i32, ptr, i32, i32, ptr, i64, i64, i32, i32, i32, i32, ptr, i32, i32, ptr, i32, i32, ptr, ptr, i32, [3 x i8], %struct.pathspec, ptr, ptr, ptr, ptr, ptr, ptr, ptr, ptr, i32, ptr, i32, i32, ptr, ptr, i32 }
%struct.diff_flags = type { i32, i32, i32, i32, i32, i32, i32, i32, i32, i32, i32, i32, i32, i32, i32, i32, i32, i32, i32, i32, i32, i32, i32, i32, i32, i32, i32, i32, i32, i32, i32, i32, i32, i32, i32 }
%struct.display_notes_opt = type { i32, %struct.string_list }
%struct.decoration = type { ptr, i32, i32, ptr }
%struct.oidset = type { %struct.kh_oid_set }
%struct.kh_oid_set = type { i32, i32, i32, i32, ptr, ptr, ptr }
%struct.commit_list = type { ptr, ptr }

; Function Attrs: nounwind uwtable
define dso_local i32 @line_log_filter(ptr noundef %0) #0 {
  %2 = alloca ptr, align 8
  %3 = alloca ptr, align 8
  %4 = alloca ptr, align 8
  %5 = alloca ptr, align 8
  %6 = alloca ptr, align 8
  %7 = alloca ptr, align 8
  store ptr %0, ptr %2, align 8, !tbaa !26
  call void @llvm.lifetime.start.p0(i64 8, ptr %3) #9
  call void @llvm.lifetime.start.p0(i64 8, ptr %4) #9
  %8 = load ptr, ptr %2, align 8, !tbaa !26
  %9 = getelementptr inbounds nuw %struct.rev_info, ptr %8, i32 0, i32 0
  %10 = load ptr, ptr %9, align 8, !tbaa !167
  store ptr %10, ptr %4, align 8, !tbaa !162
  call void @llvm.lifetime.start.p0(i64 8, ptr %5) #9
  store ptr null, ptr %5, align 8, !tbaa !162
  call void @llvm.lifetime.start.p0(i64 8, ptr %6) #9
  store ptr %5, ptr %6, align 8, !tbaa !168
  br label %11

11:                                               ; preds = %29, %1
  %12 = load ptr, ptr %4, align 8, !tbaa !162
  %13 = icmp ne ptr %12, null
  br i1 %13, label %14, label %34

14:                                               ; preds = %11
  call void @llvm.lifetime.start.p0(i64 8, ptr %7) #9
  store ptr null, ptr %7, align 8, !tbaa !162
  %15 = load ptr, ptr %4, align 8, !tbaa !162
  %16 = getelementptr inbounds nuw %struct.commit_list, ptr %15, i32 0, i32 0
  %17 = load ptr, ptr %16, align 8, !tbaa !148
  store ptr %17, ptr %3, align 8, !tbaa !32
  %18 = load ptr, ptr %2, align 8, !tbaa !26
  %19 = load ptr, ptr %3, align 8, !tbaa !32
  %20 = call i32 @line_log_process_ranges_arbitrary_commit(ptr noundef %18, ptr noundef %19)
  %21 = icmp ne i32 %20, 0
  br i1 %21, label %22, label %27

22:                                               ; preds = %14
  %23 = load ptr, ptr %4, align 8, !tbaa !162
  %24 = load ptr, ptr %6, align 8, !tbaa !168
  store ptr %23, ptr %24, align 8, !tbaa !162
  %25 = load ptr, ptr %4, align 8, !tbaa !162
  %26 = getelementptr inbounds nuw %struct.commit_list, ptr %25, i32 0, i32 1
  store ptr %26, ptr %6, align 8, !tbaa !168
  br label %29

27:                                               ; preds = %14
  %28 = load ptr, ptr %4, align 8, !tbaa !162
  store ptr %28, ptr %7, align 8, !tbaa !162
  br label %29

29:                                               ; preds = %27, %22
  %30 = load ptr, ptr %4, align 8, !tbaa !162
  %31 = getelementptr inbounds nuw %struct.commit_list, ptr %30, i32 0, i32 1
  %32 = load ptr, ptr %31, align 8, !tbaa !150
  store ptr %32, ptr %4, align 8, !tbaa !162
  %33 = load ptr, ptr %7, align 8, !tbaa !162
  call void @free(ptr noundef %33) #9
  call void @llvm.lifetime.end.p0(i64 8, ptr %7) #9
  br label %11, !llvm.loop !170

34:                                               ; preds = %11
  %35 = load ptr, ptr %6, align 8, !tbaa !168
  store ptr null, ptr %35, align 8, !tbaa !162
  %36 = load ptr, ptr %5, align 8, !tbaa !162
  store ptr %36, ptr %4, align 8, !tbaa !162
  br label %37

37:                                               ; preds = %46, %34
  %38 = load ptr, ptr %4, align 8, !tbaa !162
  %39 = icmp ne ptr %38, null
  br i1 %39, label %40, label %50

40:                                               ; preds = %37
  %41 = load ptr, ptr %2, align 8, !tbaa !26
  %42 = load ptr, ptr %4, align 8, !tbaa !162
  %43 = getelementptr inbounds nuw %struct.commit_list, ptr %42, i32 0, i32 0
  %44 = load ptr, ptr %43, align 8, !tbaa !148
  %45 = call i32 @rewrite_parents(ptr noundef %41, ptr noundef %44, ptr noundef @line_log_rewrite_one)
  br label %46

46:                                               ; preds = %40
  %47 = load ptr, ptr %4, align 8, !tbaa !162
  %48 = getelementptr inbounds nuw %struct.commit_list, ptr %47, i32 0, i32 1
  %49 = load ptr, ptr %48, align 8, !tbaa !150
  store ptr %49, ptr %4, align 8, !tbaa !162
  br label %37, !llvm.loop !171

50:                                               ; preds = %37
  %51 = load ptr, ptr %5, align 8, !tbaa !162
  %52 = load ptr, ptr %2, align 8, !tbaa !26
  %53 = getelementptr inbounds nuw %struct.rev_info, ptr %52, i32 0, i32 0
  store ptr %51, ptr %53, align 8, !tbaa !167
  call void @llvm.lifetime.end.p0(i64 8, ptr %6) #9
  call void @llvm.lifetime.end.p0(i64 8, ptr %5) #9
  call void @llvm.lifetime.end.p0(i64 8, ptr %4) #9
  call void @llvm.lifetime.end.p0(i64 8, ptr %3) #9
  ret i32 0
}