; Function Attrs: nounwind uwtable
define dso_local noundef i32 @line_log_filter(ptr noundef %0) local_unnamed_addr #0 {
  %2 = alloca ptr, align 8
  %3 = load ptr, ptr %0, align 8, !tbaa !166
  call void @llvm.lifetime.start.p0(i64 8, ptr nonnull %2)
  store ptr null, ptr %2, align 8, !tbaa !167
  %.not23 = icmp eq ptr %3, null
  br i1 %.not23, label %._crit_edge, label %.lr.ph

.lr.ph:                                           ; preds = %1, %8
  %.01725 = phi ptr [ %.1, %8 ], [ %2, %1 ]
  %.01824 = phi ptr [ %10, %8 ], [ %3, %1 ]
  %4 = load ptr, ptr %.01824, align 8, !tbaa !155
  %5 = tail call i32 @line_log_process_ranges_arbitrary_commit(ptr noundef nonnull %0, ptr noundef %4)
  %.not22 = icmp eq i32 %5, 0
  br i1 %.not22, label %8, label %6

6:                                                ; preds = %.lr.ph
  store ptr %.01824, ptr %.01725, align 8, !tbaa !167
  %7 = getelementptr inbounds nuw i8, ptr %.01824, i64 8
  br label %8

8:                                                ; preds = %.lr.ph, %6
  %.1 = phi ptr [ %7, %6 ], [ %.01725, %.lr.ph ]
  %.0 = phi ptr [ null, %6 ], [ %.01824, %.lr.ph ]
  %9 = getelementptr inbounds nuw i8, ptr %.01824, i64 8
  %10 = load ptr, ptr %9, align 8, !tbaa !158
  tail call void @free(ptr noundef %.0) #16
  %.not = icmp eq ptr %10, null
  br i1 %.not, label %._crit_edge, label %.lr.ph, !llvm.loop !168

._crit_edge:                                      ; preds = %8, %1
  %.017.lcssa = phi ptr [ %2, %1 ], [ %.1, %8 ]
  store ptr null, ptr %.017.lcssa, align 8, !tbaa !167
  %.0..0..11926 = load ptr, ptr %2, align 8, !tbaa !167
  %.not2127 = icmp eq ptr %.0..0..11926, null
  br i1 %.not2127, label %._crit_edge31, label %.lr.ph30

.lr.ph30:                                         ; preds = %._crit_edge, %.lr.ph30
  %.11928 = phi ptr [ %.119, %.lr.ph30 ], [ %.0..0..11926, %._crit_edge ]
  %11 = load ptr, ptr %.11928, align 8, !tbaa !155
  %12 = tail call i32 @rewrite_parents(ptr noundef nonnull %0, ptr noundef %11, ptr noundef nonnull @line_log_rewrite_one) #16
  %13 = getelementptr inbounds nuw i8, ptr %.11928, i64 8
  %.119 = load ptr, ptr %13, align 8, !tbaa !167
  %.not21 = icmp eq ptr %.119, null
  br i1 %.not21, label %._crit_edge31, label %.lr.ph30, !llvm.loop !169

._crit_edge31:                                    ; preds = %.lr.ph30, %._crit_edge
  store ptr %.0..0..11926, ptr %0, align 8, !tbaa !166
  call void @llvm.lifetime.end.p0(i64 8, ptr nonnull %2)
  ret i32 0
}